target datalayout = "e-m:e-p270:32:32-p271:32:32-p272:64:64-i64:64-i128:128-f80:128-n8:16:32:64-S128"
target triple = "x86_64-pc-linux-gnu"

%struct.mi_memid_s = type { %union.anon, i8, i8, i8, i32 }
%union.anon = type { %struct.mi_memid_os_info }
%struct.mi_memid_os_info = type { ptr, i64 }

@mi_arena_count = internal global i64 0, align 64
@_mi_numa_node_count = external hidden global i64, align 8

; Function Attrs: inlinehint nounwind uwtable
define internal zeroext i1 @mi_mul_overflow(i64 noundef %0, i64 noundef %1, ptr noundef %2) #4 {
  %4 = alloca i64, align 8
  %5 = alloca i64, align 8
  %6 = alloca ptr, align 8
  store i64 %0, ptr %4, align 8, !tbaa !15
  store i64 %1, ptr %5, align 8, !tbaa !15
  store ptr %2, ptr %6, align 8, !tbaa !31
  %7 = load i64, ptr %4, align 8, !tbaa !15
  %8 = load i64, ptr %5, align 8, !tbaa !15
  %9 = load ptr, ptr %6, align 8, !tbaa !31
  %10 = call { i64, i1 } @llvm.umul.with.overflow.i64(i64 %7, i64 %8)
  %11 = extractvalue { i64, i1 } %10, 1
  %12 = extractvalue { i64, i1 } %10, 0
  store i64 %12, ptr %9, align 8
  ret i1 %11
}

; Function Attrs: inlinehint nounwind uwtable
define internal i64 @_mi_clamp(i64 noundef %0, i64 noundef %1, i64 noundef %2) #4 {
  %4 = alloca i64, align 8
  %5 = alloca i64, align 8
  %6 = alloca i64, align 8
  %7 = alloca i64, align 8
  store i64 %0, ptr %5, align 8, !tbaa !15
  store i64 %1, ptr %6, align 8, !tbaa !15
  store i64 %2, ptr %7, align 8, !tbaa !15
  %8 = load i64, ptr %5, align 8, !tbaa !15
  %9 = load i64, ptr %6, align 8, !tbaa !15
  %10 = icmp ult i64 %8, %9
  br i1 %10, label %11, label %13

11:                                               ; preds = %3
  %12 = load i64, ptr %6, align 8, !tbaa !15
  store i64 %12, ptr %4, align 8
  br label %21

13:                                               ; preds = %3
  %14 = load i64, ptr %5, align 8, !tbaa !15
  %15 = load i64, ptr %7, align 8, !tbaa !15
  %16 = icmp ugt i64 %14, %15
  br i1 %16, label %17, label %19

17:                                               ; preds = %13
  %18 = load i64, ptr %7, align 8, !tbaa !15
  store i64 %18, ptr %4, align 8
  br label %21

19:                                               ; preds = %13
  %20 = load i64, ptr %5, align 8, !tbaa !15
  store i64 %20, ptr %4, align 8
  br label %21

21:                                               ; preds = %19, %17, %11
  %22 = load i64, ptr %4, align 8
  ret i64 %22
}

; Function Attrs: inlinehint nounwind uwtable
define internal i64 @_mi_align_up(i64 noundef %0, i64 noundef %1) #4 {
  %3 = alloca i64, align 8
  %4 = alloca i64, align 8
  %5 = alloca i64, align 8
  %6 = alloca i64, align 8
  %7 = alloca i32, align 4
  store i64 %0, ptr %4, align 8, !tbaa !15
  store i64 %1, ptr %5, align 8, !tbaa !15
  call void @llvm.lifetime.start.p0(i64 8, ptr %6) #13
  %8 = load i64, ptr %5, align 8, !tbaa !15
  %9 = sub i64 %8, 1
  store i64 %9, ptr %6, align 8, !tbaa !15
  %10 = load i64, ptr %5, align 8, !tbaa !15
  %11 = load i64, ptr %6, align 8, !tbaa !15
  %12 = and i64 %10, %11
  %13 = icmp eq i64 %12, 0
  br i1 %13, label %14, label %21

14:                                               ; preds = %2
  %15 = load i64, ptr %4, align 8, !tbaa !15
  %16 = load i64, ptr %6, align 8, !tbaa !15
  %17 = add i64 %15, %16
  %18 = load i64, ptr %6, align 8, !tbaa !15
  %19 = xor i64 %18, -1
  %20 = and i64 %17, %19
  store i64 %20, ptr %3, align 8
  store i32 1, ptr %7, align 4
  br label %29

21:                                               ; preds = %2
  %22 = load i64, ptr %4, align 8, !tbaa !15
  %23 = load i64, ptr %6, align 8, !tbaa !15
  %24 = add i64 %22, %23
  %25 = load i64, ptr %5, align 8, !tbaa !15
  %26 = udiv i64 %24, %25
  %27 = load i64, ptr %5, align 8, !tbaa !15
  %28 = mul i64 %26, %27
  store i64 %28, ptr %3, align 8
  store i32 1, ptr %7, align 4
  br label %29

29:                                               ; preds = %21, %14
  call void @llvm.lifetime.end.p0(i64 8, ptr %6) #13
  %30 = load i64, ptr %3, align 8
  ret i64 %30
}

; Function Attrs: inlinehint nounwind uwtable
define internal void @_mi_memid_create(ptr dead_on_unwind noalias writable sret(%struct.mi_memid_s) align 8 %0, i32 noundef %1) #4 {
  %3 = alloca i32, align 4
  store i32 %1, ptr %3, align 4, !tbaa !52
  call void @llvm.memset.p0.i64(ptr align 8 %0, i8 0, i64 24, i1 false)
  %4 = load i32, ptr %3, align 4, !tbaa !52
  %5 = getelementptr inbounds nuw %struct.mi_memid_s, ptr %0, i32 0, i32 4
  store i32 %4, ptr %5, align 4, !tbaa !59
  ret void
}

; Function Attrs: nounwind uwtable
define internal zeroext i1 @mi_arena_reserve(i64 noundef %0, i1 noundef zeroext %1, ptr noundef %2) #0 {
  %4 = alloca i1, align 1
  %5 = alloca i64, align 8
  %6 = alloca i8, align 1
  %7 = alloca ptr, align 8
  %8 = alloca i64, align 8
  %9 = alloca i64, align 8
  %10 = alloca i32, align 4
  %11 = alloca i64, align 8
  %12 = alloca i64, align 8
  %13 = alloca i64, align 8
  %14 = alloca i8, align 1
  store i64 %0, ptr %5, align 8, !tbaa !15
  %15 = zext i1 %1 to i8
  store i8 %15, ptr %6, align 1, !tbaa !21
  store ptr %2, ptr %7, align 8, !tbaa !69
  %16 = call zeroext i1 @_mi_preloading() #12
  br i1 %16, label %17, label %18

17:                                               ; preds = %3
  store i1 false, ptr %4, align 1
  br label %82

18:                                               ; preds = %3
  call void @llvm.lifetime.start.p0(i64 8, ptr %8) #13
  %19 = load atomic i64, ptr @mi_arena_count acquire, align 64
  store i64 %19, ptr %9, align 8
  %20 = load i64, ptr %9, align 8, !tbaa !15
  store i64 %20, ptr %8, align 8, !tbaa !15
  %21 = load i64, ptr %8, align 8, !tbaa !15
  %22 = icmp ugt i64 %21, 128
  br i1 %22, label %23, label %24

23:                                               ; preds = %18
  store i1 false, ptr %4, align 1
  store i32 1, ptr %10, align 4
  br label %81

24:                                               ; preds = %18
  call void @llvm.lifetime.start.p0(i64 8, ptr %11) #13
  %25 = call i64 @mi_option_get_size(i32 noundef 23) #12
  store i64 %25, ptr %11, align 8, !tbaa !15
  %26 = load i64, ptr %11, align 8, !tbaa !15
  %27 = icmp eq i64 %26, 0
  br i1 %27, label %28, label %29

28:                                               ; preds = %24
  store i1 false, ptr %4, align 1
  store i32 1, ptr %10, align 4
  br label %80

29:                                               ; preds = %24
  %30 = call zeroext i1 @_mi_os_has_virtual_reserve() #12
  br i1 %30, label %34, label %31

31:                                               ; preds = %29
  %32 = load i64, ptr %11, align 8, !tbaa !15
  %33 = udiv i64 %32, 4
  store i64 %33, ptr %11, align 8, !tbaa !15
  br label %34

34:                                               ; preds = %31, %29
  %35 = load i64, ptr %11, align 8, !tbaa !15
  %36 = call i64 @_mi_align_up(i64 noundef %35, i64 noundef 4194304) #12
  store i64 %36, ptr %11, align 8, !tbaa !15
  %37 = load i64, ptr %11, align 8, !tbaa !15
  %38 = call i64 @_mi_align_up(i64 noundef %37, i64 noundef 4194304) #12
  store i64 %38, ptr %11, align 8, !tbaa !15
  %39 = load i64, ptr %8, align 8, !tbaa !15
  %40 = icmp uge i64 %39, 8
  br i1 %40, label %41, label %55

41:                                               ; preds = %34
  %42 = load i64, ptr %8, align 8, !tbaa !15
  %43 = icmp ule i64 %42, 128
  br i1 %43, label %44, label %55

44:                                               ; preds = %41
  call void @llvm.lifetime.start.p0(i64 8, ptr %12) #13
  %45 = load i64, ptr %8, align 8, !tbaa !15
  %46 = udiv i64 %45, 8
  %47 = call i64 @_mi_clamp(i64 noundef %46, i64 noundef 0, i64 noundef 16) #12
  %48 = shl i64 1, %47
  store i64 %48, ptr %12, align 8, !tbaa !15
  call void @llvm.lifetime.start.p0(i64 8, ptr %13) #13
  store i64 0, ptr %13, align 8, !tbaa !15
  %49 = load i64, ptr %12, align 8, !tbaa !15
  %50 = load i64, ptr %11, align 8, !tbaa !15
  %51 = call zeroext i1 @mi_mul_overflow(i64 noundef %49, i64 noundef %50, ptr noundef %13) #12
  br i1 %51, label %54, label %52

52:                                               ; preds = %44
  %53 = load i64, ptr %13, align 8, !tbaa !15
  store i64 %53, ptr %11, align 8, !tbaa !15
  br label %54

54:                                               ; preds = %52, %44
  call void @llvm.lifetime.end.p0(i64 8, ptr %13) #13
  call void @llvm.lifetime.end.p0(i64 8, ptr %12) #13
  br label %55

55:                                               ; preds = %54, %41, %34
  %56 = load i64, ptr %11, align 8, !tbaa !15
  %57 = load i64, ptr %5, align 8, !tbaa !15
  %58 = icmp ult i64 %56, %57
  br i1 %58, label %59, label %60

59:                                               ; preds = %55
  store i1 false, ptr %4, align 1
  store i32 1, ptr %10, align 4
  br label %80

60:                                               ; preds = %55
  call void @llvm.lifetime.start.p0(i64 1, ptr %14) #13
  store i8 0, ptr %14, align 1, !tbaa !21
  %61 = call i64 @mi_option_get(i32 noundef 4) #12
  %62 = icmp eq i64 %61, 2
  br i1 %62, label %63, label %66

63:                                               ; preds = %60
  %64 = call zeroext i1 @_mi_os_has_overcommit() #12
  %65 = zext i1 %64 to i8
  store i8 %65, ptr %14, align 1, !tbaa !21
  br label %71

66:                                               ; preds = %60
  %67 = call i64 @mi_option_get(i32 noundef 4) #12
  %68 = icmp eq i64 %67, 1
  br i1 %68, label %69, label %70

69:                                               ; preds = %66
  store i8 1, ptr %14, align 1, !tbaa !21
  br label %70

70:                                               ; preds = %69, %66
  br label %71

71:                                               ; preds = %70, %63
  %72 = load i64, ptr %11, align 8, !tbaa !15
  %73 = load i8, ptr %14, align 1, !tbaa !21, !range !22, !noundef !23
  %74 = trunc i8 %73 to i1
  %75 = load i8, ptr %6, align 1, !tbaa !21, !range !22, !noundef !23
  %76 = trunc i8 %75 to i1
  %77 = load ptr, ptr %7, align 8, !tbaa !69
  %78 = call i32 @mi_reserve_os_memory_ex(i64 noundef %72, i1 noundef zeroext %74, i1 noundef zeroext %76, i1 noundef zeroext false, ptr noundef %77) #12
  %79 = icmp eq i32 %78, 0
  store i1 %79, ptr %4, align 1
  store i32 1, ptr %10, align 4
  call void @llvm.lifetime.end.p0(i64 1, ptr %14) #13
  br label %80

80:                                               ; preds = %71, %59, %28
  call void @llvm.lifetime.end.p0(i64 8, ptr %11) #13
  br label %81

81:                                               ; preds = %80, %23
  call void @llvm.lifetime.end.p0(i64 8, ptr %8) #13
  br label %82

82:                                               ; preds = %81, %17
  %83 = load i1, ptr %4, align 1
  ret i1 %83
}

; Function Attrs: nounwind uwtable
define hidden i32 @_mi_arena_id_none() #0 {
  ret i32 0
}

; Function Attrs: inlinehint nounwind uwtable
define internal i32 @_mi_os_numa_node() #4 {
  %1 = alloca i32, align 4
  %2 = alloca i64, align 8
  %3 = load atomic i64, ptr @_mi_numa_node_count monotonic, align 8
  store i64 %3, ptr %2, align 8
  %4 = load i64, ptr %2, align 8, !tbaa !15
  %5 = icmp eq i64 %4, 1
  %6 = xor i1 %5, true
  %7 = xor i1 %6, true
  %8 = zext i1 %7 to i32
  %9 = sext i32 %8 to i64
  %10 = call i64 @llvm.expect.i64(i64 %9, i64 1)
  %11 = icmp ne i64 %10, 0
  br i1 %11, label %12, label %13

12:                                               ; preds = %0
  store i32 0, ptr %1, align 4
  br label %15

13:                                               ; preds = %0
  %14 = call i32 @_mi_os_numa_node_get() #12
  store i32 %14, ptr %1, align 4
  br label %15

15:                                               ; preds = %13, %12
  %16 = load i32, ptr %1, align 4
  ret i32 %16
}

; Function Attrs: inlinehint nounwind uwtable
define internal void @_mi_memid_none(ptr dead_on_unwind noalias writable sret(%struct.mi_memid_s) align 8 %0) #4 {
  call void @_mi_memid_create(ptr dead_on_unwind writable sret(%struct.mi_memid_s) align 8 %0, i32 noundef 0) #12
  ret void
}

; Function Attrs: nounwind uwtable
define hidden ptr @_mi_arena_alloc_aligned(i64 noundef %0, i64 noundef %1, i64 noundef %2, i1 noundef zeroext %3, i1 noundef zeroext %4, i32 noundef %5, ptr noundef %6) #0 {
  %8 = alloca ptr, align 8
  %9 = alloca i64, align 8
  %10 = alloca i64, align 8
  %11 = alloca i64, align 8
  %12 = alloca i8, align 1
  %13 = alloca i8, align 1
  %14 = alloca i32, align 4
  %15 = alloca ptr, align 8
  %16 = alloca %struct.mi_memid_s, align 8
  %17 = alloca i32, align 4
  %18 = alloca ptr, align 8
  %19 = alloca i32, align 4
  %20 = alloca i32, align 4
  store i64 %0, ptr %9, align 8, !tbaa !15
  store i64 %1, ptr %10, align 8, !tbaa !15
  store i64 %2, ptr %11, align 8, !tbaa !15
  %21 = zext i1 %3 to i8
  store i8 %21, ptr %12, align 1, !tbaa !21
  %22 = zext i1 %4 to i8
  store i8 %22, ptr %13, align 1, !tbaa !21
  store i32 %5, ptr %14, align 4, !tbaa !52
  store ptr %6, ptr %15, align 8, !tbaa !60
  %23 = load ptr, ptr %15, align 8, !tbaa !60
  call void @llvm.lifetime.start.p0(i64 24, ptr %16) #13
  call void @_mi_memid_none(ptr dead_on_unwind writable sret(%struct.mi_memid_s) align 8 %16) #12
  call void @llvm.memcpy.p0.p0.i64(ptr align 8 %23, ptr align 8 %16, i64 24, i1 false), !tbaa.struct !62
  call void @llvm.lifetime.end.p0(i64 24, ptr %16) #13
  call void @llvm.lifetime.start.p0(i64 4, ptr %17) #13
  %24 = call i32 @_mi_os_numa_node() #12
  store i32 %24, ptr %17, align 4, !tbaa !52
  %25 = call zeroext i1 @mi_option_is_enabled(i32 noundef 27) #12
  br i1 %25, label %85, label %26

26:                                               ; preds = %7
  %27 = load i64, ptr %9, align 8, !tbaa !15
  %28 = icmp uge i64 %27, 2097152
  br i1 %28, label %29, label %84

29:                                               ; preds = %26
  %30 = load i64, ptr %10, align 8, !tbaa !15
  %31 = icmp ule i64 %30, 4194304
  br i1 %31, label %32, label %84

32:                                               ; preds = %29
  %33 = load i64, ptr %11, align 8, !tbaa !15
  %34 = icmp eq i64 %33, 0
  br i1 %34, label %35, label %84

35:                                               ; preds = %32
  call void @llvm.lifetime.start.p0(i64 8, ptr %18) #13
  %36 = load i32, ptr %17, align 4, !tbaa !52
  %37 = load i64, ptr %9, align 8, !tbaa !15
  %38 = load i64, ptr %10, align 8, !tbaa !15
  %39 = load i8, ptr %12, align 1, !tbaa !21, !range !22, !noundef !23
  %40 = trunc i8 %39 to i1
  %41 = load i8, ptr %13, align 1, !tbaa !21, !range !22, !noundef !23
  %42 = trunc i8 %41 to i1
  %43 = load i32, ptr %14, align 4, !tbaa !52
  %44 = load ptr, ptr %15, align 8, !tbaa !60
  %45 = call ptr @mi_arena_try_alloc(i32 noundef %36, i64 noundef %37, i64 noundef %38, i1 noundef zeroext %40, i1 noundef zeroext %42, i32 noundef %43, ptr noundef %44) #12
  store ptr %45, ptr %18, align 8, !tbaa !53
  %46 = load ptr, ptr %18, align 8, !tbaa !53
  %47 = icmp ne ptr %46, null
  br i1 %47, label %48, label %50

48:                                               ; preds = %35
  %49 = load ptr, ptr %18, align 8, !tbaa !53
  store ptr %49, ptr %8, align 8
  store i32 1, ptr %19, align 4
  br label %81

50:                                               ; preds = %35
  %51 = load i32, ptr %14, align 4, !tbaa !52
  %52 = call i32 @_mi_arena_id_none() #12
  %53 = icmp eq i32 %51, %52
  br i1 %53, label %54, label %80

54:                                               ; preds = %50
  call void @llvm.lifetime.start.p0(i64 4, ptr %20) #13
  store i32 0, ptr %20, align 4, !tbaa !52
  %55 = load i64, ptr %9, align 8, !tbaa !15
  %56 = load i8, ptr %13, align 1, !tbaa !21, !range !22, !noundef !23
  %57 = trunc i8 %56 to i1
  %58 = call zeroext i1 @mi_arena_reserve(i64 noundef %55, i1 noundef zeroext %57, ptr noundef %20) #12
  br i1 %58, label %59, label %76

59:                                               ; preds = %54
  %60 = load i32, ptr %20, align 4, !tbaa !52
  %61 = load i32, ptr %17, align 4, !tbaa !52
  %62 = load i64, ptr %9, align 8, !tbaa !15
  %63 = load i64, ptr %10, align 8, !tbaa !15
  %64 = load i8, ptr %12, align 1, !tbaa !21, !range !22, !noundef !23
  %65 = trunc i8 %64 to i1
  %66 = load i8, ptr %13, align 1, !tbaa !21, !range !22, !noundef !23
  %67 = trunc i8 %66 to i1
  %68 = load i32, ptr %14, align 4, !tbaa !52
  %69 = load ptr, ptr %15, align 8, !tbaa !60
  %70 = call ptr @mi_arena_try_alloc_at_id(i32 noundef %60, i1 noundef zeroext true, i32 noundef %61, i64 noundef %62, i64 noundef %63, i1 noundef zeroext %65, i1 noundef zeroext %67, i32 noundef %68, ptr noundef %69) #12
  store ptr %70, ptr %18, align 8, !tbaa !53
  %71 = load ptr, ptr %18, align 8, !tbaa !53
  %72 = icmp ne ptr %71, null
  br i1 %72, label %73, label %75

73:                                               ; preds = %59
  %74 = load ptr, ptr %18, align 8, !tbaa !53
  store ptr %74, ptr %8, align 8
  store i32 1, ptr %19, align 4
  br label %77

75:                                               ; preds = %59
  br label %76

76:                                               ; preds = %75, %54
  store i32 0, ptr %19, align 4
  br label %77

77:                                               ; preds = %76, %73
  call void @llvm.lifetime.end.p0(i64 4, ptr %20) #13
  %78 = load i32, ptr %19, align 4
  switch i32 %78, label %81 [
    i32 0, label %79
  ]

79:                                               ; preds = %77
  br label %80

80:                                               ; preds = %79, %50
  store i32 0, ptr %19, align 4
  br label %81

81:                                               ; preds = %80, %77, %48
  call void @llvm.lifetime.end.p0(i64 8, ptr %18) #13
  %82 = load i32, ptr %19, align 4
  switch i32 %82, label %115 [
    i32 0, label %83
  ]

83:                                               ; preds = %81
  br label %84

84:                                               ; preds = %83, %32, %29, %26
  br label %85

85:                                               ; preds = %84, %7
  %86 = call zeroext i1 @mi_option_is_enabled(i32 noundef 17) #12
  br i1 %86, label %91, label %87

87:                                               ; preds = %85
  %88 = load i32, ptr %14, align 4, !tbaa !52
  %89 = call i32 @_mi_arena_id_none() #12
  %90 = icmp ne i32 %88, %89
  br i1 %90, label %91, label %93

91:                                               ; preds = %87, %85
  %92 = call ptr @__errno_location() #15
  store i32 12, ptr %92, align 4, !tbaa !52
  store ptr null, ptr %8, align 8
  store i32 1, ptr %19, align 4
  br label %115

93:                                               ; preds = %87
  %94 = load i64, ptr %11, align 8, !tbaa !15
  %95 = icmp ugt i64 %94, 0
  br i1 %95, label %96, label %106

96:                                               ; preds = %93
  %97 = load i64, ptr %9, align 8, !tbaa !15
  %98 = load i64, ptr %10, align 8, !tbaa !15
  %99 = load i64, ptr %11, align 8, !tbaa !15
  %100 = load i8, ptr %12, align 1, !tbaa !21, !range !22, !noundef !23
  %101 = trunc i8 %100 to i1
  %102 = load i8, ptr %13, align 1, !tbaa !21, !range !22, !noundef !23
  %103 = trunc i8 %102 to i1
  %104 = load ptr, ptr %15, align 8, !tbaa !60
  %105 = call ptr @_mi_os_alloc_aligned_at_offset(i64 noundef %97, i64 noundef %98, i64 noundef %99, i1 noundef zeroext %101, i1 noundef zeroext %103, ptr noundef %104) #12
  store ptr %105, ptr %8, align 8
  store i32 1, ptr %19, align 4
  br label %115

106:                                              ; preds = %93
  %107 = load i64, ptr %9, align 8, !tbaa !15
  %108 = load i64, ptr %10, align 8, !tbaa !15
  %109 = load i8, ptr %12, align 1, !tbaa !21, !range !22, !noundef !23
  %110 = trunc i8 %109 to i1
  %111 = load i8, ptr %13, align 1, !tbaa !21, !range !22, !noundef !23
  %112 = trunc i8 %111 to i1
  %113 = load ptr, ptr %15, align 8, !tbaa !60
  %114 = call ptr @_mi_os_alloc_aligned(i64 noundef %107, i64 noundef %108, i1 noundef zeroext %110, i1 noundef zeroext %112, ptr noundef %113) #12
  store ptr %114, ptr %8, align 8
  store i32 1, ptr %19, align 4
  br label %115

115:                                              ; preds = %106, %96, %91, %81
  call void @llvm.lifetime.end.p0(i64 4, ptr %17) #13
  %116 = load ptr, ptr %8, align 8
  ret ptr %116
}