; Function Attrs: nounwind uwtable
define hidden ptr @_mi_arena_alloc_aligned(i64 noundef %0, i64 noundef %1, i64 noundef %2, i1 noundef zeroext %3, i1 noundef zeroext %4, i32 noundef %5, ptr noundef initializes((0, 24)) %6) local_unnamed_addr #0 {
  %8 = alloca i32, align 4
  tail call void @llvm.memset.p0.i64(ptr noundef nonnull align 8 dereferenceable(24) %6, i8 0, i64 24, i1 false)
  %9 = load atomic i64, ptr @_mi_numa_node_count monotonic, align 8
  %10 = icmp eq i64 %9, 1
  br i1 %10, label %_mi_os_numa_node.exit, label %11, !prof !14

11:                                               ; preds = %7
  %12 = tail call i32 @_mi_os_numa_node_get() #20
  br label %_mi_os_numa_node.exit

_mi_os_numa_node.exit:                            ; preds = %7, %11
  %.0.i = phi i32 [ %12, %11 ], [ 0, %7 ]
  %13 = tail call zeroext i1 @mi_option_is_enabled(i32 noundef 27) #20
  br i1 %13, label %.thread, label %14

14:                                               ; preds = %_mi_os_numa_node.exit
  %15 = icmp ugt i64 %0, 2097151
  %16 = icmp ult i64 %1, 4194305
  %or.cond = and i1 %15, %16
  %17 = icmp eq i64 %2, 0
  %or.cond4 = and i1 %or.cond, %17
  br i1 %or.cond4, label %18, label %.thread

18:                                               ; preds = %14
  %19 = tail call fastcc ptr @mi_arena_try_alloc(i32 noundef %.0.i, i64 noundef %0, i1 noundef zeroext %3, i1 noundef zeroext %4, i32 noundef %5, ptr noundef nonnull %6) #19
  %.not = icmp eq ptr %19, null
  br i1 %.not, label %20, label %.thread59

20:                                               ; preds = %18
  %21 = icmp eq i32 %5, 0
  br i1 %21, label %23, label %.thread.thread

.thread.thread:                                   ; preds = %20
  %22 = tail call zeroext i1 @mi_option_is_enabled(i32 noundef 17) #20
  br label %61

23:                                               ; preds = %20
  call void @llvm.lifetime.start.p0(i64 4, ptr nonnull %8) #21
  store i32 0, ptr %8, align 4, !tbaa !47
  %24 = tail call zeroext i1 @_mi_preloading() #20
  br i1 %24, label %.thread65, label %25

25:                                               ; preds = %23
  %26 = load atomic i64, ptr @mi_arena_count acquire, align 64
  %27 = icmp ugt i64 %26, 128
  br i1 %27, label %.thread65, label %28

28:                                               ; preds = %25
  %29 = tail call i64 @mi_option_get_size(i32 noundef 23) #20
  %30 = icmp eq i64 %29, 0
  br i1 %30, label %.thread65, label %31

31:                                               ; preds = %28
  %32 = tail call zeroext i1 @_mi_os_has_virtual_reserve() #20
  %33 = lshr i64 %29, 2
  %spec.select.i = select i1 %32, i64 %29, i64 %33
  %34 = add i64 %spec.select.i, 4194303
  %35 = and i64 %34, -4194304
  %36 = icmp samesign ugt i64 %26, 7
  br i1 %36, label %37, label %43

37:                                               ; preds = %31
  %38 = lshr i64 %26, 3
  %39 = shl nuw nsw i64 1, %38
  %40 = tail call { i64, i1 } @llvm.umul.with.overflow.i64(i64 range(i64 2, 65537) %39, i64 %35)
  %41 = extractvalue { i64, i1 } %40, 1
  %42 = extractvalue { i64, i1 } %40, 0
  %spec.select24.i = select i1 %41, i64 %35, i64 %42
  br label %43

43:                                               ; preds = %37, %31
  %.120.i = phi i64 [ %spec.select24.i, %37 ], [ %35, %31 ]
  %44 = icmp ult i64 %.120.i, %0
  br i1 %44, label %.thread65, label %45

45:                                               ; preds = %43
  %46 = tail call i64 @mi_option_get(i32 noundef 4) #20
  %47 = icmp eq i64 %46, 2
  br i1 %47, label %48, label %50

48:                                               ; preds = %45
  %49 = tail call zeroext i1 @_mi_os_has_overcommit() #20
  br label %mi_arena_reserve.exit

50:                                               ; preds = %45
  %51 = tail call i64 @mi_option_get(i32 noundef 4) #20
  %52 = icmp eq i64 %51, 1
  br label %mi_arena_reserve.exit

mi_arena_reserve.exit:                            ; preds = %48, %50
  %.0.i55 = phi i1 [ %49, %48 ], [ %52, %50 ]
  %53 = call i32 @mi_reserve_os_memory_ex(i64 noundef %.120.i, i1 noundef zeroext %.0.i55, i1 noundef zeroext %4, i1 noundef zeroext false, ptr noundef nonnull %8) #19
  %54 = icmp eq i32 %53, 0
  br i1 %54, label %55, label %.thread65

55:                                               ; preds = %mi_arena_reserve.exit
  %56 = load i32, ptr %8, align 4, !tbaa !47
  %57 = call fastcc ptr @mi_arena_try_alloc_at_id(i32 noundef %56, i1 noundef zeroext true, i32 noundef %.0.i, i64 noundef %0, i1 noundef zeroext %3, i1 noundef zeroext %4, i32 noundef 0, ptr noundef nonnull %6) #19
  %.not52 = icmp eq ptr %57, null
  br i1 %.not52, label %.thread65, label %58

58:                                               ; preds = %55
  call void @llvm.lifetime.end.p0(i64 4, ptr nonnull %8) #21
  br label %.thread59

.thread:                                          ; preds = %14, %_mi_os_numa_node.exit
  %59 = tail call zeroext i1 @mi_option_is_enabled(i32 noundef 17) #20
  %.not53 = icmp ne i32 %5, 0
  %or.cond71.not = or i1 %.not53, %59
  br i1 %or.cond71.not, label %61, label %63

.thread65:                                        ; preds = %43, %28, %25, %23, %55, %mi_arena_reserve.exit
  call void @llvm.lifetime.end.p0(i64 4, ptr nonnull %8) #21
  %60 = call zeroext i1 @mi_option_is_enabled(i32 noundef 17) #20
  br i1 %60, label %61, label %.thread68

61:                                               ; preds = %.thread.thread, %.thread65, %.thread
  %62 = tail call ptr @__errno_location() #22
  store i32 12, ptr %62, align 4, !tbaa !47
  br label %.thread59

63:                                               ; preds = %.thread
  %.not54 = icmp eq i64 %2, 0
  br i1 %.not54, label %.thread68, label %64

64:                                               ; preds = %63
  %65 = tail call ptr @_mi_os_alloc_aligned_at_offset(i64 noundef %0, i64 noundef %1, i64 noundef %2, i1 noundef zeroext %3, i1 noundef zeroext %4, ptr noundef nonnull %6) #20
  br label %.thread59

.thread68:                                        ; preds = %.thread65, %63
  %66 = call ptr @_mi_os_alloc_aligned(i64 noundef %0, i64 noundef %1, i1 noundef zeroext %3, i1 noundef zeroext %4, ptr noundef nonnull %6) #20
  br label %.thread59

.thread59:                                        ; preds = %18, %58, %.thread68, %64, %61
  %.3 = phi ptr [ null, %61 ], [ %65, %64 ], [ %66, %.thread68 ], [ %57, %58 ], [ %19, %18 ]
  ret ptr %.3
}